(dp0
S'<subj> covering video'
p1
(dp2
S'subj_freq'
p3
I1
sS'freq'
p4
I1
sS'type'
p5
S'subj'
p6
sS'display'
p7
S'covering video'
p8
sS'prob'
p9
F1.0
ssS'seeks <dobj>'
p10
(dp11
g3
I0
sg4
I1
sg5
S'dobj'
p12
sg7
S'seeks'
p13
sg9
F0.0
ssS"<subj> 'm"
p14
(dp15
S'type'
p16
S'subj'
p17
sS'freq'
p18
I2
sS'subj_freq'
p19
I2
sS'display'
p20
S"'m"
p21
sS'prob'
p22
F1.0
ssS'wired <dobj>'
p23
(dp24
g3
I1
sg4
I1
sg5
g12
sg7
S'wired'
p25
sg9
F1.0
ssS'include <dobj>'
p26
(dp27
g3
I0
sg4
I2
sg5
g12
sg7
S'include'
p28
sg9
F0.0
ssS'<subj> resulting introductions'
p29
(dp30
g3
I1
sg4
I1
sg5
g6
sg7
S'resulting introductions'
p31
sg9
F1.0
ssV<subj> tracks
p32
(dp33
S'subj_freq'
p34
I9
sS'freq'
p35
I9
sS'type'
p36
S'subj'
p37
sS'display'
p38
Vtracks
p39
sS'prob'
p40
F1.0
ssS'<subj> involved'
p41
(dp42
g3
I0
sg4
I1
sg5
g6
sg7
S'involved'
p43
sg9
F0.0
ssS'<subj> reach'
p44
(dp45
g3
I1
sg4
I1
sg5
g6
sg7
S'reach'
p46
sg9
F1.0
ssS'<subj> bundling product'
p47
(dp48
g3
I1
sg4
I1
sg5
g6
sg7
S'bundling product'
p49
sg9
F1.0
ssS'customized delivery of <np>'
p50
(dp51
g3
I1
sg4
I1
sg5
S'np'
p52
sg7
S'customized delivery of'
p53
sg9
F1.0
ssS'<subj> allow'
p54
(dp55
g3
I2
sg4
I2
sg5
g6
sg7
S'allow'
p56
sg9
F1.0
ssS'<subj> have product'
p57
(dp58
g3
I0
sg4
I1
sg5
g6
sg7
S'have product'
p59
sg9
F0.0
ssS'<subj> regarding appropriateness'
p60
(dp61
g3
I1
sg4
I1
sg5
g6
sg7
S'regarding appropriateness'
p62
sg9
F1.0
ssS'release <dobj>'
p63
(dp64
S'subj_freq'
p65
I1
sS'freq'
p66
I1
sS'type'
p67
S'dobj'
p68
sS'display'
p69
S'release'
p70
sS'prob'
p71
F1.0
ssVkeep <dobj>
p72
(dp73
g34
I9
sg35
I9
sg36
S'dobj'
p74
sg38
Vkeep
p75
sg40
F1.0
ssS'<subj> release'
p76
(dp77
g65
I1
sg66
I1
sg67
S'subj'
p78
sg69
S'release'
p79
sg71
F1.0
ssS'<subj> compete Apple'
p80
(dp81
g3
I1
sg4
I1
sg5
g6
sg7
S'compete Apple'
p82
sg9
F1.0
ssS'<subj> based'
p83
(dp84
g3
I0
sg4
I1
sg5
g6
sg7
S'based'
p85
sg9
F0.0
ssS'Please <dobj>'
p86
(dp87
g3
I1
sg4
I1
sg5
g12
sg7
S'Please'
p88
sg9
F1.0
ssS'<subj> reserved'
p89
(dp90
S'subj_freq'
p91
I0
sS'freq'
p92
I2
sS'type'
p93
S'subj'
p94
sS'display'
p95
S'reserved'
p96
sS'prob'
p97
F0.0
ssS'<subj> found'
p98
(dp99
S'type'
p100
S'subj'
p101
sS'freq'
p102
I4
sS'subj_freq'
p103
I4
sS'display'
p104
S'found'
p105
sS'prob'
p106
F1.0
ssS'<subj> wired'
p107
(dp108
g3
I1
sg4
I1
sg5
g6
sg7
S'wired'
p109
sg9
F1.0
ssS'reserved <dobj>'
p110
(dp111
g91
I0
sg92
I2
sg93
S'dobj'
p112
sg95
S'reserved'
p113
sg97
F0.0
ssS'enables <dobj>'
p114
(dp115
g3
I1
sg4
I1
sg5
g12
sg7
S'enables'
p116
sg9
F1.0
ssS'expected <dobj>'
p117
(dp118
g3
I1
sg4
I4
sg5
g12
sg7
S'expected'
p119
sg9
F0.25
ssS'<subj> have been reserved'
p120
(dp121
g91
I0
sg92
I2
sg93
g94
sg95
S'have been reserved'
p122
sg97
F0.0
ssV<subj> Compiled
p123
(dp124
g34
I9
sg35
I9
sg36
g37
sg38
VCompiled
p125
sg40
F1.0
ssS'experience at <np>'
p126
(dp127
g3
I1
sg4
I1
sg5
g52
sg7
S'experience at'
p128
sg9
F1.0
ssS'<subj> doubled'
p129
(dp130
g3
I0
sg4
I1
sg5
g6
sg7
S'doubled'
p131
sg9
F0.0
ssS'response by <np>'
p132
(dp133
g91
I2
sg92
I2
sg93
S'np'
p134
sg95
S'response by'
p135
sg97
F1.0
ssS'<subj> allow software'
p136
(dp137
g3
I1
sg4
I1
sg5
g6
sg7
S'allow software'
p138
sg9
F1.0
ssS'to become <dobj>'
p139
(dp140
g3
I1
sg4
I1
sg5
g12
sg7
S'to become'
p141
sg9
F1.0
ssV<subj> get
p142
(dp143
g34
I9
sg35
I9
sg36
g37
sg38
Vget
p144
sg40
F1.0
ssV<subj> give
p145
(dp146
S'type'
p147
S'subj'
p148
sS'freq'
p149
I29
sS'subj_freq'
p150
I29
sS'display'
p151
Vgive
p152
sS'prob'
p153
F1.0
ssS'<subj> include companies'
p154
(dp155
g3
I0
sg4
I1
sg5
g6
sg7
S'include companies'
p156
sg9
F0.0
ssS'<subj> allows company'
p157
(dp158
g3
I1
sg4
I1
sg5
g6
sg7
S'allows company'
p159
sg9
F1.0
ssV<subj> keep
p160
(dp161
g34
I9
sg35
I9
sg36
g37
sg38
Vkeep
p162
sg40
F1.0
ssS'streaming <dobj>'
p163
(dp164
g3
I2
sg4
I2
sg5
g12
sg7
S'streaming'
p165
sg9
F1.0
ssS'<subj> is advanced'
p166
(dp167
g3
I0
sg4
I1
sg5
g6
sg7
S'is advanced'
p168
sg9
F0.0
ssV<subj> was blown
p169
(dp170
g147
g148
sg149
I30
sg150
I30
sg151
Vwas blown
p171
sg153
F1.0
ssS'<subj> giving'
p172
(dp173
g3
I0
sg4
I1
sg5
g6
sg7
S'giving'
p174
sg9
F0.0
ssS'partnerships with <np>'
p175
(dp176
g3
I1
sg4
I1
sg5
g52
sg7
S'partnerships with'
p177
sg9
F1.0
ssS'<subj> seeks Year'
p178
(dp179
g3
I0
sg4
I1
sg5
g6
sg7
S'seeks Year'
p180
sg9
F0.0
ssS'<subj> customized advertising'
p181
(dp182
g3
I1
sg4
I1
sg5
g6
sg7
S'customized advertising'
p183
sg9
F1.0
ssS'<subj> pleased members'
p184
(dp185
g3
I1
sg4
I1
sg5
g6
sg7
S'pleased members'
p186
sg9
F1.0
ssS'<subj> advanced discussions'
p187
(dp188
g3
I0
sg4
I1
sg5
g6
sg7
S'advanced discussions'
p189
sg9
F0.0
ssS'to release <dobj>'
p190
(dp191
g65
I1
sg66
I1
sg67
g68
sg69
S'to release'
p192
sg71
F1.0
ssS'<subj> lead'
p193
(dp194
g3
I1
sg4
I1
sg5
g6
sg7
S'lead'
p195
sg9
F1.0
ssS'pursuing <dobj>'
p196
(dp197
g3
I0
sg4
I1
sg5
g12
sg7
S'pursuing'
p198
sg9
F0.0
ssS'spreading <dobj>'
p199
(dp200
S'type'
p201
S'dobj'
p202
sS'freq'
p203
I5
sS'subj_freq'
p204
I5
sS'display'
p205
S'spreading'
p206
sS'prob'
p207
F1.0
ssS'sharing <dobj>'
p208
(dp209
g34
I0
sg35
I14
sg36
g74
sg38
S'sharing'
p210
sg40
F0.0
ssS'<subj> spreading bid'
p211
(dp212
g201
S'subj'
p213
sg203
I5
sg204
I5
sg205
S'spreading bid'
p214
sg207
F1.0
ssV<subj> read
p215
(dp216
g147
g148
sg149
I30
sg150
I30
sg151
Vread
p217
sg153
F1.0
ssS'<subj> viewing markets'
p218
(dp219
g3
I1
sg4
I1
sg5
g6
sg7
S'viewing markets'
p220
sg9
F1.0
ssS'<subj> filed patent'
p221
(dp222
g3
I0
sg4
I1
sg5
g6
sg7
S'filed patent'
p223
sg9
F0.0
ssS'<subj> pending'
p224
(dp225
g3
I1
sg4
I1
sg5
g6
sg7
S'pending'
p226
sg9
F1.0
ssS'<subj> derived month'
p227
(dp228
g3
I1
sg4
I1
sg5
g6
sg7
S'derived month'
p229
sg9
F1.0
ssS'provide <dobj>'
p230
(dp231
g3
I1
sg4
I1
sg5
g12
sg7
S'provide'
p232
sg9
F1.0
ssV<subj> imagined
p233
(dp234
g34
I9
sg35
I9
sg36
g37
sg38
Vimagined
p235
sg40
F1.0
ssV<subj> watched
p236
(dp237
g147
g148
sg149
I26
sg150
I26
sg151
Vwatched
p238
sg153
F1.0
ssS'establish <dobj>'
p239
(dp240
g3
I1
sg4
I1
sg5
g12
sg7
S'establish'
p241
sg9
F1.0
ssS'<subj> based board'
p242
(dp243
g3
I0
sg4
I1
sg5
g6
sg7
S'based board'
p244
sg9
F0.0
ssS'<subj> streaming'
p245
(dp246
g3
I2
sg4
I2
sg5
g6
sg7
S'streaming'
p247
sg9
F1.0
ssS'to watch <dobj>'
p248
(dp249
g3
I1
sg4
I1
sg5
g12
sg7
S'to watch'
p250
sg9
F1.0
ssS'<subj> lead development'
p251
(dp252
g3
I1
sg4
I1
sg5
g6
sg7
S'lead development'
p253
sg9
F1.0
ssS'<subj> including'
p254
(dp255
g3
I2
sg4
I3
sg5
g6
sg7
S'including'
p256
sg9
F0.6666666666666666
ssS'derived <dobj>'
p257
(dp258
g3
I2
sg4
I2
sg5
g12
sg7
S'derived'
p259
sg9
F1.0
ssS'operating systems from <np>'
p260
(dp261
g3
I1
sg4
I1
sg5
g52
sg7
S'operating systems from'
p262
sg9
F1.0
ssS'make <dobj>'
p263
(dp264
g3
I2
sg4
I2
sg5
g12
sg7
S'make'
p265
sg9
F1.0
ssS'Corporation around <np>'
p266
(dp267
g3
I0
sg4
I1
sg5
g52
sg7
S'Corporation around'
p268
sg9
F0.0
ssS'player in <np>'
p269
(dp270
g3
I1
sg4
I1
sg5
g52
sg7
S'player in'
p271
sg9
F1.0
ssS'<subj> leading'
p272
(dp273
g3
I0
sg4
I1
sg5
g6
sg7
S'leading'
p274
sg9
F0.0
ssS'allow <dobj>'
p275
(dp276
g3
I2
sg4
I2
sg5
g12
sg7
S'allow'
p277
sg9
F1.0
ssS'refused <dobj>'
p278
(dp279
g65
I1
sg66
I1
sg67
g68
sg69
S'refused'
p280
sg71
F1.0
ssS'<subj> been written'
p281
(dp282
g3
I0
sg4
I1
sg5
g6
sg7
S'been written'
p283
sg9
F0.0
ssS'<subj> expected'
p284
(dp285
g3
I1
sg4
I4
sg5
g6
sg7
S'expected'
p286
sg9
F0.25
ssVwatched <dobj>
p287
(dp288
g147
S'dobj'
p289
sg149
I26
sg150
I26
sg151
Vwatched
p290
sg153
F1.0
ssS'<subj> use Smith'
p291
(dp292
g3
I1
sg4
I1
sg5
g6
sg7
S'use Smith'
p293
sg9
F1.0
ssS'<subj> opposed'
p294
(dp295
g3
I0
sg4
I1
sg5
g6
sg7
S'opposed'
p296
sg9
F0.0
ssS'<subj> make systems'
p297
(dp298
g3
I1
sg4
I1
sg5
g6
sg7
S'make systems'
p299
sg9
F1.0
ssS'<subj> filed'
p300
(dp301
g3
I0
sg4
I1
sg5
g6
sg7
S'filed'
p302
sg9
F0.0
ssS'become <dobj>'
p303
(dp304
g3
I1
sg4
I1
sg5
g12
sg7
S'become'
p305
sg9
F1.0
ssVfeatured <dobj>
p306
(dp307
g34
I9
sg35
I9
sg36
g74
sg38
Vfeatured
p308
sg40
F1.0
ssS'<subj> presented services'
p309
(dp310
g3
I1
sg4
I1
sg5
g6
sg7
S'presented services'
p311
sg9
F1.0
ssV<subj> posted people
p312
(dp313
g147
g148
sg149
I30
sg150
I30
sg151
Vposted people
p314
sg153
F1.0
ssS'<subj> raise'
p315
(dp316
g3
I0
sg4
I1
sg5
g6
sg7
S'raise'
p317
sg9
F0.0
ssS'to reach <dobj>'
p318
(dp319
g3
I1
sg4
I1
sg5
g12
sg7
S'to reach'
p320
sg9
F1.0
ssS'<subj> makes recommendations'
p321
(dp322
g3
I1
sg4
I1
sg5
g6
sg7
S'makes recommendations'
p323
sg9
F1.0
ssVdid <dobj>
p324
(dp325
g147
g289
sg149
I26
sg150
I26
sg151
Vdid
p326
sg153
F1.0
ssS'<subj> have software'
p327
(dp328
g3
I0
sg4
I1
sg5
g6
sg7
S'have software'
p329
sg9
F0.0
ssS'including <dobj>'
p330
(dp331
g3
I2
sg4
I3
sg5
g12
sg7
S'including'
p332
sg9
F0.6666666666666666
ssS'serves <dobj>'
p333
(dp334
g3
I0
sg4
I1
sg5
g12
sg7
S'serves'
p335
sg9
F0.0
ssS'<subj> include'
p336
(dp337
g3
I0
sg4
I2
sg5
g6
sg7
S'include'
p338
sg9
F0.0
ssS'<subj> be bundled'
p339
(dp340
g3
I1
sg4
I1
sg5
g6
sg7
S'be bundled'
p341
sg9
F1.0
ssVCalled <dobj>
p342
(dp343
g34
I23
sg35
I23
sg36
g74
sg38
VCalled
p344
sg40
F1.0
ssS'<subj> operating Microsoft'
p345
(dp346
g3
I1
sg4
I1
sg5
g6
sg7
S'operating Microsoft'
p347
sg9
F1.0
ssS'<subj> pleased'
p348
(dp349
g3
I1
sg4
I1
sg5
g6
sg7
S'pleased'
p350
sg9
F1.0
ssV<subj> blown
p351
(dp352
g147
g148
sg149
I30
sg150
I30
sg151
Vblown
p353
sg153
F1.0
ssS"'m <dobj>"
p354
(dp355
g16
S'dobj'
p356
sg18
I2
sg19
I2
sg20
S"'m"
p357
sg22
F1.0
ssS'grow <dobj>'
p358
(dp359
g3
I1
sg4
I2
sg5
g12
sg7
S'grow'
p360
sg9
F0.5
ssS'shows <dobj>'
p361
(dp362
g3
I2
sg4
I2
sg5
g12
sg7
S'shows'
p363
sg9
F1.0
ssS'<subj> operating'
p364
(dp365
g3
I1
sg4
I1
sg5
g6
sg7
S'operating'
p366
sg9
F1.0
ssS'round of <np>'
p367
(dp368
g3
I0
sg4
I1
sg5
g52
sg7
S'round of'
p369
sg9
F0.0
ssS'exploding <dobj>'
p370
(dp371
g3
I0
sg4
I1
sg5
g12
sg7
S'exploding'
p372
sg9
F0.0
ssS'<subj> has card'
p373
(dp374
g3
I0
sg4
I1
sg5
g6
sg7
S'has card'
p375
sg9
F0.0
ssS'based <dobj>'
p376
(dp377
g3
I0
sg4
I1
sg5
g12
sg7
S'based'
p378
sg9
F0.0
ssVblown <dobj>
p379
(dp380
g147
g289
sg149
I30
sg150
I30
sg151
Vblown
p381
sg153
F1.0
ssS'<subj> written release'
p382
(dp383
g3
I0
sg4
I1
sg5
g6
sg7
S'written release'
p384
sg9
F0.0
ssS'<subj> resulting'
p385
(dp386
g3
I1
sg4
I1
sg5
g6
sg7
S'resulting'
p387
sg9
F1.0
ssS'focused <dobj>'
p388
(dp389
S'type'
p390
S'dobj'
p391
sS'freq'
p392
I2
sS'subj_freq'
p393
I2
sS'display'
p394
S'focused'
p395
sS'prob'
p396
F1.0
ssS'<subj> have home'
p397
(dp398
g3
I0
sg4
I1
sg5
g6
sg7
S'have home'
p399
sg9
F0.0
ssS'<subj> pending patent'
p400
(dp401
g3
I1
sg4
I1
sg5
g6
sg7
S'pending patent'
p402
sg9
F1.0
ssS'<subj> have stages'
p403
(dp404
g3
I0
sg4
I1
sg5
g6
sg7
S'have stages'
p405
sg9
F0.0
ssV<subj> Called Land
p406
(dp407
g34
I23
sg35
I23
sg36
g37
sg38
VCalled Land
p408
sg40
F1.0
ssS'customized <dobj>'
p409
(dp410
g3
I1
sg4
I1
sg5
g12
sg7
S'customized'
p411
sg9
F1.0
ssS'<subj> viewing'
p412
(dp413
g3
I2
sg4
I2
sg5
g6
sg7
S'viewing'
p414
sg9
F1.0
ssS'<subj> have been written'
p415
(dp416
g3
I0
sg4
I1
sg5
g6
sg7
S'have been written'
p417
sg9
F0.0
ssS'<subj> refused'
p418
(dp419
g65
I1
sg66
I1
sg67
g78
sg69
S'refused'
p420
sg71
F1.0
ssS'makes <dobj>'
p421
(dp422
g3
I1
sg4
I1
sg5
g12
sg7
S'makes'
p423
sg9
F1.0
ssS'<subj> refused freeze'
p424
(dp425
g65
I1
sg66
I1
sg67
g78
sg69
S'refused freeze'
p426
sg71
F1.0
ssS'<subj> stop'
p427
(dp428
g201
g213
sg203
I5
sg204
I5
sg205
S'stop'
p429
sg207
F1.0
ssS'<subj> protect'
p430
(dp431
g3
I0
sg4
I1
sg5
g6
sg7
S'protect'
p432
sg9
F0.0
ssS'<subj> shows'
p433
(dp434
g3
I2
sg4
I2
sg5
g6
sg7
S'shows'
p435
sg9
F1.0
ssV<subj> posted
p436
(dp437
g147
g148
sg149
I30
sg150
I30
sg151
Vposted
p438
sg153
F1.0
ssS'seeking <dobj>'
p439
(dp440
g3
I0
sg4
I1
sg5
g12
sg7
S'seeking'
p441
sg9
F0.0
ssS'<subj> derived 5'
p442
(dp443
g3
I1
sg4
I1
sg5
g6
sg7
S'derived 5'
p444
sg9
F1.0
ssS'to bundled <dobj>'
p445
(dp446
g3
I1
sg4
I1
sg5
g12
sg7
S'to bundled'
p447
sg9
F1.0
ssS'<subj> pursuing'
p448
(dp449
g3
I0
sg4
I1
sg5
g6
sg7
S'pursuing'
p450
sg9
F0.0
ssV<subj> wait
p451
(dp452
g34
I7
sg35
I7
sg36
g37
sg38
Vwait
p453
sg40
F1.0
ssV<subj> Called Ad
p454
(dp455
g34
I14
sg35
I14
sg36
g37
sg38
VCalled Ad
p456
sg40
F1.0
ssS'<subj> including home'
p457
(dp458
g3
I0
sg4
I1
sg5
g6
sg7
S'including home'
p459
sg9
F0.0
ssS'<subj> streaming technology'
p460
(dp461
g3
I1
sg4
I1
sg5
g6
sg7
S'streaming technology'
p462
sg9
F1.0
ssS'<subj> seeking individuals'
p463
(dp464
g3
I0
sg4
I1
sg5
g6
sg7
S'seeking individuals'
p465
sg9
F0.0
ssS'<subj> use'
p466
(dp467
g3
I1
sg4
I1
sg5
g6
sg7
S'use'
p468
sg9
F1.0
ssS'appealed <dobj>'
p469
(dp470
g65
I1
sg66
I1
sg67
g68
sg69
S'appealed'
p471
sg71
F1.0
ssS'<subj> shows news'
p472
(dp473
g3
I1
sg4
I1
sg5
g6
sg7
S'shows news'
p474
sg9
F1.0
ssS'allows <dobj>'
p475
(dp476
g3
I1
sg4
I1
sg5
g12
sg7
S'allows'
p477
sg9
F1.0
ssS'<subj> implemented'
p478
(dp479
g3
I0
sg4
I1
sg5
g6
sg7
S'implemented'
p480
sg9
F0.0
ssS'lead <dobj>'
p481
(dp482
g3
I1
sg4
I1
sg5
g12
sg7
S'lead'
p483
sg9
F1.0
ssS'<subj> followed'
p484
(dp485
g3
I1
sg4
I1
sg5
g6
sg7
S'followed'
p486
sg9
F1.0
ssS'bundling to establish <dobj>'
p487
(dp488
g3
I1
sg4
I1
sg5
g12
sg7
S'bundling to establish'
p489
sg9
F1.0
ssS'<subj> bundling'
p490
(dp491
g3
I1
sg4
I3
sg5
g6
sg7
S'bundling'
p492
sg9
F0.3333333333333333
ssS'found <dobj>'
p493
(dp494
g100
S'dobj'
p495
sg102
I4
sg103
I4
sg104
S'found'
p496
sg106
F1.0
ssS'<subj> enables'
p497
(dp498
g3
I1
sg4
I1
sg5
g6
sg7
S'enables'
p499
sg9
F1.0
ssS'<subj> bundling plans'
p500
(dp501
g3
I1
sg4
I1
sg5
g6
sg7
S'bundling plans'
p502
sg9
F1.0
ssS'to stop <dobj>'
p503
(dp504
g201
g202
sg203
I5
sg204
I5
sg205
S'to stop'
p505
sg207
F1.0
ssS'stop <dobj>'
p506
(dp507
g201
g202
sg203
I5
sg204
I5
sg205
S'stop'
p508
sg207
F1.0
ssS'<subj> seeks'
p509
(dp510
g3
I0
sg4
I1
sg5
g6
sg7
S'seeks'
p511
sg9
F0.0
ssS'<subj> provide'
p512
(dp513
g3
I1
sg4
I1
sg5
g6
sg7
S'provide'
p514
sg9
F1.0
ssS'<subj> seeks to raise'
p515
(dp516
g3
I0
sg4
I1
sg5
g6
sg7
S'seeks to raise'
p517
sg9
F0.0
ssS'<subj> are expected'
p518
(dp519
g3
I1
sg4
I4
sg5
g6
sg7
S'are expected'
p520
sg9
F0.25
ssS'<subj> been reserved'
p521
(dp522
g91
I0
sg92
I2
sg93
g94
sg95
S'been reserved'
p523
sg97
F0.0
ssS'<subj> bundling to establish'
p524
(dp525
g3
I1
sg4
I1
sg5
g6
sg7
S'bundling to establish'
p526
sg9
F1.0
ssS'followed <dobj>'
p527
(dp528
g3
I1
sg4
I1
sg5
g12
sg7
S'followed'
p529
sg9
F1.0
ssVimagined <dobj>
p530
(dp531
g34
I9
sg35
I9
sg36
g74
sg38
Vimagined
p532
sg40
F1.0
ssS'<subj> be established'
p533
(dp534
g91
I2
sg92
I2
sg93
g94
sg95
S'be established'
p535
sg97
F1.0
ssVbring <dobj>
p536
(dp537
g34
I9
sg35
I9
sg36
g74
sg38
Vbring
p538
sg40
F1.0
ssS'viewing <dobj>'
p539
(dp540
g3
I2
sg4
I2
sg5
g12
sg7
S'viewing'
p541
sg9
F1.0
ssS'<subj> written reviews'
p542
(dp543
g3
I0
sg4
I1
sg5
g6
sg7
S'written reviews'
p544
sg9
F0.0
ssS'<subj> attend'
p545
(dp546
g91
I2
sg92
I2
sg93
g94
sg95
S'attend'
p547
sg97
F1.0
ssS'<subj> make companies'
p548
(dp549
g3
I1
sg4
I1
sg5
g6
sg7
S'make companies'
p550
sg9
F1.0
ssV<subj> get seat
p551
(dp552
g34
I9
sg35
I9
sg36
g37
sg38
Vget seat
p553
sg40
F1.0
ssS'<subj> be derived'
p554
(dp555
g3
I2
sg4
I2
sg5
g6
sg7
S'be derived'
p556
sg9
F1.0
ssS'<subj> become'
p557
(dp558
g3
I1
sg4
I1
sg5
g6
sg7
S'become'
p559
sg9
F1.0
ssS'<subj> spreading'
p560
(dp561
g201
g213
sg203
I5
sg204
I5
sg205
S'spreading'
p562
sg207
F1.0
ssS'conference from <np>'
p563
(dp564
g91
I2
sg92
I2
sg93
g134
sg95
S'conference from'
p565
sg97
F1.0
ssS'bundling <dobj>'
p566
(dp567
g3
I1
sg4
I3
sg5
g12
sg7
S'bundling'
p568
sg9
F0.3333333333333333
ssVreleased <dobj>
p569
(dp570
g34
I9
sg35
I9
sg36
g74
sg38
Vreleased
p571
sg40
F1.0
ssS'to further <dobj>'
p572
(dp573
g3
I1
sg4
I2
sg5
g12
sg7
S'to further'
p574
sg9
F0.5
ssS'held <dobj>'
p575
(dp576
g390
g391
sg392
I2
sg393
I2
sg394
S'held'
p577
sg396
F1.0
ssS'President at <np>'
p578
(dp579
g3
I1
sg4
I1
sg5
g52
sg7
S'President at'
p580
sg9
F1.0
ssS'further <dobj>'
p581
(dp582
g3
I1
sg4
I2
sg5
g12
sg7
S'further'
p583
sg9
F0.5
ssS'seeks to raise <dobj>'
p584
(dp585
g3
I0
sg4
I1
sg5
g12
sg7
S'seeks to raise'
p586
sg9
F0.0
ssS'<subj> release Supreme'
p587
(dp588
g65
I1
sg66
I1
sg67
g78
sg69
S'release Supreme'
p589
sg71
F1.0
ssS'to provide <dobj>'
p590
(dp591
g3
I1
sg4
I1
sg5
g12
sg7
S'to provide'
p592
sg9
F1.0
ssS'<subj> reserved t'
p593
(dp594
g91
I0
sg92
I2
sg93
g94
sg95
S'reserved t'
p595
sg97
F0.0
ssS'<subj> be followed'
p596
(dp597
g3
I1
sg4
I1
sg5
g6
sg7
S'be followed'
p598
sg9
F1.0
ssS'<subj> filed television'
p599
(dp600
g3
I0
sg4
I1
sg5
g6
sg7
S'filed television'
p601
sg9
F0.0
ssS'<subj> based Silicon'
p602
(dp603
g3
I0
sg4
I1
sg5
g6
sg7
S'based Silicon'
p604
sg9
F0.0
ssVposted <dobj>
p605
(dp606
g147
g289
sg149
I30
sg150
I30
sg151
Vposted
p607
sg153
F1.0
ssS'<subj> appealed'
p608
(dp609
g65
I1
sg66
I1
sg67
g78
sg69
S'appealed'
p610
sg71
F1.0
ssS'bundled <dobj>'
p611
(dp612
g3
I1
sg4
I1
sg5
g12
sg7
S'bundled'
p613
sg9
F1.0
ssS'<subj> further barriers'
p614
(dp615
g3
I1
sg4
I1
sg5
g6
sg7
S'further barriers'
p616
sg9
F1.0
ssS'resulting <dobj>'
p617
(dp618
g3
I1
sg4
I1
sg5
g12
sg7
S'resulting'
p619
sg9
F1.0
ssVCompiled <dobj>
p620
(dp621
g34
I9
sg35
I9
sg36
g74
sg38
VCompiled
p622
sg40
F1.0
ssS'<subj> exploding'
p623
(dp624
g3
I0
sg4
I1
sg5
g6
sg7
S'exploding'
p625
sg9
F0.0
ssV<subj> conveyed
p626
(dp627
g34
I9
sg35
I9
sg36
g37
sg38
Vconveyed
p628
sg40
F1.0
ssV<subj> forces
p629
(dp630
g147
g148
sg149
I26
sg150
I26
sg151
Vforces
p631
sg153
F1.0
ssS'video over <np>'
p632
(dp633
g3
I1
sg4
I1
sg5
g52
sg7
S'video over'
p634
sg9
F1.0
ssV<subj> released
p635
(dp636
g34
I9
sg35
I9
sg36
g37
sg38
Vreleased
p637
sg40
F1.0
ssS'<subj> viewing patterns'
p638
(dp639
g3
I1
sg4
I1
sg5
g6
sg7
S'viewing patterns'
p640
sg9
F1.0
ssS'<subj> existing'
p641
(dp642
g3
I1
sg4
I2
sg5
g6
sg7
S'existing'
p643
sg9
F0.5
ssS'opposed <dobj>'
p644
(dp645
g3
I0
sg4
I1
sg5
g12
sg7
S'opposed'
p646
sg9
F0.0
ssS'implemented <dobj>'
p647
(dp648
g3
I0
sg4
I1
sg5
g12
sg7
S'implemented'
p649
sg9
F0.0
ssVtracks <dobj>
p650
(dp651
g34
I9
sg35
I9
sg36
g74
sg38
Vtracks
p652
sg40
F1.0
ssS'raise <dobj>'
p653
(dp654
g3
I0
sg4
I1
sg5
g12
sg7
S'raise'
p655
sg9
F0.0
ssS'associated <dobj>'
p656
(dp657
g3
I1
sg4
I1
sg5
g12
sg7
S'associated'
p658
sg9
F1.0
ssS'<subj> implemented technology'
p659
(dp660
g3
I0
sg4
I1
sg5
g6
sg7
S'implemented technology'
p661
sg9
F0.0
ssS'yesterday in <np>'
p662
(dp663
g201
S'np'
p664
sg203
I5
sg204
I5
sg205
S'yesterday in'
p665
sg207
F1.0
ssS'attend <dobj>'
p666
(dp667
g91
I2
sg92
I2
sg93
g112
sg95
S'attend'
p668
sg97
F1.0
ssS'leading <dobj>'
p669
(dp670
g3
I0
sg4
I1
sg5
g12
sg7
S'leading'
p671
sg9
F0.0
ssS'compete <dobj>'
p672
(dp673
g3
I1
sg4
I1
sg5
g12
sg7
S'compete'
p674
sg9
F1.0
ssS'<subj> established'
p675
(dp676
g91
I2
sg92
I3
sg93
g94
sg95
S'established'
p677
sg97
F0.6666666666666666
ssS'<subj> compete'
p678
(dp679
g3
I1
sg4
I1
sg5
g6
sg7
S'compete'
p680
sg9
F1.0
ssVget <dobj>
p681
(dp682
g34
I9
sg35
I9
sg36
g74
sg38
Vget
p683
sg40
F1.0
ssS'<subj> seeking'
p684
(dp685
g3
I0
sg4
I1
sg5
g6
sg7
S'seeking'
p686
sg9
F0.0
ssS'<subj> held'
p687
(dp688
g390
S'subj'
p689
sg392
I2
sg393
I2
sg394
S'held'
p690
sg396
F1.0
ssS'<subj> release water'
p691
(dp692
g65
I1
sg66
I1
sg67
g78
sg69
S'release water'
p693
sg71
F1.0
ssVread <dobj>
p694
(dp695
g147
g289
sg149
I30
sg150
I30
sg151
Vread
p696
sg153
F1.0
ssS'filed <dobj>'
p697
(dp698
g3
I0
sg4
I1
sg5
g12
sg7
S'filed'
p699
sg9
F0.0
ssS'<subj> shows television'
p700
(dp701
g3
I1
sg4
I1
sg5
g6
sg7
S'shows television'
p702
sg9
F1.0
ssS'<subj> sharing'
p703
(dp704
g34
I0
sg35
I14
sg36
g37
sg38
S'sharing'
p705
sg40
F0.0
ssS'<subj> regarding'
p706
(dp707
g3
I2
sg4
I2
sg5
g6
sg7
S'regarding'
p708
sg9
F1.0
ssV<subj> bring
p709
(dp710
g34
I9
sg35
I9
sg36
g37
sg38
Vbring
p711
sg40
F1.0
ssVcapture <dobj>
p712
(dp713
g34
I9
sg35
I9
sg36
g74
sg38
Vcapture
p714
sg40
F1.0
ssS'traded <dobj>'
p715
(dp716
g3
I0
sg4
I1
sg5
g12
sg7
S'traded'
p717
sg9
F0.0
ssS'<subj> involve'
p718
(dp719
g3
I1
sg4
I1
sg5
g6
sg7
S'involve'
p720
sg9
F1.0
ssS'giving <dobj>'
p721
(dp722
g3
I0
sg4
I1
sg5
g12
sg7
S'giving'
p723
sg9
F0.0
ssS'<subj> associated'
p724
(dp725
g3
I1
sg4
I1
sg5
g6
sg7
S'associated'
p726
sg9
F1.0
ssS'<subj> lead American'
p727
(dp728
g3
I1
sg4
I1
sg5
g6
sg7
S'lead American'
p729
sg9
F1.0
ssS'<subj> Please'
p730
(dp731
g3
I1
sg4
I1
sg5
g6
sg7
S'Please'
p732
sg9
F1.0
ssS'board of <np>'
p733
(dp734
g3
I0
sg4
I1
sg5
g52
sg7
S'board of'
p735
sg9
F0.0
ssS'<subj> seeks company'
p736
(dp737
g3
I0
sg4
I1
sg5
g6
sg7
S'seeks company'
p738
sg9
F0.0
ssS'advanced <dobj>'
p739
(dp740
g3
I0
sg4
I1
sg5
g12
sg7
S'advanced'
p741
sg9
F0.0
ssS'<subj> derived'
p742
(dp743
g3
I2
sg4
I2
sg5
g6
sg7
S'derived'
p744
sg9
F1.0
ssS'watch <dobj>'
p745
(dp746
g3
I1
sg4
I1
sg5
g12
sg7
S'watch'
p747
sg9
F1.0
ssS'existing <dobj>'
p748
(dp749
g3
I1
sg4
I2
sg5
g12
sg7
S'existing'
p750
sg9
F0.5
ssS'to compete <dobj>'
p751
(dp752
g3
I1
sg4
I1
sg5
g12
sg7
S'to compete'
p753
sg9
F1.0
ssS'School of <np>'
p754
(dp755
g3
I0
sg4
I1
sg5
g52
sg7
S'School of'
p756
sg9
F0.0
ssS'<subj> serves'
p757
(dp758
g3
I0
sg4
I1
sg5
g6
sg7
S'serves'
p759
sg9
F0.0
ssS'existing entry for <np>'
p760
(dp761
g3
I1
sg4
I1
sg5
g52
sg7
S'existing entry for'
p762
sg9
F1.0
ssS'<subj> were held'
p763
(dp764
g390
g689
sg392
I2
sg393
I2
sg394
S'were held'
p765
sg396
F1.0
ssS'<subj> watch'
p766
(dp767
g3
I1
sg4
I1
sg5
g6
sg7
S'watch'
p768
sg9
F1.0
ssS'involve <dobj>'
p769
(dp770
g3
I1
sg4
I1
sg5
g12
sg7
S'involve'
p771
sg9
F1.0
ssS'<subj> including cable'
p772
(dp773
g3
I1
sg4
I1
sg5
g6
sg7
S'including cable'
p774
sg9
F1.0
ssS'<subj> make'
p775
(dp776
g3
I2
sg4
I2
sg5
g6
sg7
S'make'
p777
sg9
F1.0
ssS'<subj> grow'
p778
(dp779
g3
I1
sg4
I2
sg5
g6
sg7
S'grow'
p780
sg9
F0.5
ssS'experience as <np>'
p781
(dp782
g3
I0
sg4
I1
sg5
g52
sg7
S'experience as'
p783
sg9
F0.0
ssS'pleased <dobj>'
p784
(dp785
g3
I1
sg4
I1
sg5
g12
sg7
S'pleased'
p786
sg9
F1.0
ssS'<subj> traded'
p787
(dp788
g3
I0
sg4
I1
sg5
g6
sg7
S'traded'
p789
sg9
F0.0
ssS'<subj> expected shipments'
p790
(dp791
g3
I1
sg4
I1
sg5
g6
sg7
S'expected shipments'
p792
sg9
F1.0
ssS'<subj> makes'
p793
(dp794
g3
I1
sg4
I1
sg5
g6
sg7
S'makes'
p795
sg9
F1.0
ssV<subj> featured
p796
(dp797
g34
I9
sg35
I9
sg36
g37
sg38
Vfeatured
p798
sg40
F1.0
ssS'become Director of <np>'
p799
(dp800
g3
I1
sg4
I1
sg5
g52
sg7
S'become Director of'
p801
sg9
F1.0
ssVconveyed <dobj>
p802
(dp803
g34
I9
sg35
I9
sg36
g74
sg38
Vconveyed
p804
sg40
F1.0
ssS'<subj> covering'
p805
(dp806
g3
I1
sg4
I1
sg5
g6
sg7
S'covering'
p807
sg9
F1.0
ssS'established <dobj>'
p808
(dp809
g91
I2
sg92
I3
sg93
g112
sg95
S'established'
p810
sg97
F0.6666666666666666
ssVwait <dobj>
p811
(dp812
g34
I7
sg35
I7
sg36
g74
sg38
Vwait
p813
sg40
F1.0
ssVforces <dobj>
p814
(dp815
g147
g289
sg149
I26
sg150
I26
sg151
Vforces
p816
sg153
F1.0
ssV<subj> did
p817
(dp818
g147
g148
sg149
I26
sg150
I26
sg151
Vdid
p819
sg153
F1.0
ssS'<subj> exploding market'
p820
(dp821
g3
I0
sg4
I1
sg5
g6
sg7
S'exploding market'
p822
sg9
F0.0
ssS'experience in <np>'
p823
(dp824
g3
I0
sg4
I1
sg5
g52
sg7
S'experience in'
p825
sg9
F0.0
ssS'<subj> pursuing strategy'
p826
(dp827
g3
I0
sg4
I1
sg5
g6
sg7
S'pursuing strategy'
p828
sg9
F0.0
ssS'<subj> streaming video'
p829
(dp830
g3
I1
sg4
I1
sg5
g6
sg7
S'streaming video'
p831
sg9
F1.0
ssS'to protect <dobj>'
p832
(dp833
g3
I0
sg4
I1
sg5
g12
sg7
S'to protect'
p834
sg9
F0.0
ssS'to make <dobj>'
p835
(dp836
g3
I1
sg4
I1
sg5
g12
sg7
S'to make'
p837
sg9
F1.0
ssS'use <dobj>'
p838
(dp839
g3
I1
sg4
I1
sg5
g12
sg7
S'use'
p840
sg9
F1.0
ssS'<subj> become Business'
p841
(dp842
g3
I1
sg4
I1
sg5
g6
sg7
S'become Business'
p843
sg9
F1.0
ssS'<subj> making'
p844
(dp845
g3
I1
sg4
I1
sg5
g6
sg7
S'making'
p846
sg9
F1.0
ssS'<subj> allow company'
p847
(dp848
g3
I1
sg4
I1
sg5
g6
sg7
S'allow company'
p849
sg9
F1.0
ssS'recorded <dobj>'
p850
(dp851
g3
I1
sg4
I1
sg5
g12
sg7
S'recorded'
p852
sg9
F1.0
ssS'written <dobj>'
p853
(dp854
g3
I0
sg4
I1
sg5
g12
sg7
S'written'
p855
sg9
F0.0
ssS'<subj> focused'
p856
(dp857
g390
g689
sg392
I2
sg393
I2
sg394
S'focused'
p858
sg396
F1.0
ssS'protect <dobj>'
p859
(dp860
g3
I0
sg4
I1
sg5
g12
sg7
S'protect'
p861
sg9
F0.0
ssS'pending <dobj>'
p862
(dp863
g3
I1
sg4
I1
sg5
g12
sg7
S'pending'
p864
sg9
F1.0
ssS'<subj> streaming area'
p865
(dp866
g3
I1
sg4
I1
sg5
g6
sg7
S'streaming area'
p867
sg9
F1.0
ssS'making <dobj>'
p868
(dp869
g3
I1
sg4
I1
sg5
g12
sg7
S'making'
p870
sg9
F1.0
ssS'<subj> written'
p871
(dp872
g3
I0
sg4
I1
sg5
g6
sg7
S'written'
p873
sg9
F0.0
ssV<subj> capture
p874
(dp875
g34
I9
sg35
I9
sg36
g37
sg38
Vcapture
p876
sg40
F1.0
ssS'<subj> reach users'
p877
(dp878
g3
I1
sg4
I1
sg5
g6
sg7
S'reach users'
p879
sg9
F1.0
ssS'<subj> bundled'
p880
(dp881
g3
I1
sg4
I1
sg5
g6
sg7
S'bundled'
p882
sg9
F1.0
ssS'<subj> found presentation'
p883
(dp884
g100
g101
sg102
I4
sg103
I4
sg104
S'found presentation'
p885
sg106
F1.0
ssS'<subj> involve may'
p886
(dp887
g3
I1
sg4
I1
sg5
g6
sg7
S'involve may'
p888
sg9
F1.0
ssVgive <dobj>
p889
(dp890
g147
g289
sg149
I29
sg150
I29
sg151
Vgive
p891
sg153
F1.0
ssS'presented <dobj>'
p892
(dp893
g3
I1
sg4
I1
sg5
g12
sg7
S'presented'
p894
sg9
F1.0
ssS'<subj> advanced'
p895
(dp896
g3
I0
sg4
I1
sg5
g6
sg7
S'advanced'
p897
sg9
F0.0
ssV<subj> Called D
p898
(dp899
g34
I7
sg35
I7
sg36
g37
sg38
VCalled D
p900
sg40
F1.0
ssV<subj> Called
p901
(dp902
g34
I23
sg35
I23
sg36
g37
sg38
VCalled
p903
sg40
F1.0
ssS'regarding <dobj>'
p904
(dp905
g3
I2
sg4
I2
sg5
g12
sg7
S'regarding'
p906
sg9
F1.0
ssS'<subj> provide variety'
p907
(dp908
g3
I1
sg4
I1
sg5
g6
sg7
S'provide variety'
p909
sg9
F1.0
ssS'operating <dobj>'
p910
(dp911
g3
I1
sg4
I1
sg5
g12
sg7
S'operating'
p912
sg9
F1.0
ssV<subj> Called L
p913
(dp914
g34
I7
sg35
I7
sg36
g37
sg38
VCalled L
p915
sg40
F1.0
ssS'covering <dobj>'
p916
(dp917
g3
I1
sg4
I1
sg5
g12
sg7
S'covering'
p918
sg9
F1.0
ssS'<subj> have reviews'
p919
(dp920
g3
I0
sg4
I1
sg5
g6
sg7
S'have reviews'
p921
sg9
F0.0
ssS'<subj> attend person'
p922
(dp923
g91
I2
sg92
I2
sg93
g94
sg95
S'attend person'
p924
sg97
F1.0
ssS'opportunities for <np>'
p925
(dp926
g3
I1
sg4
I1
sg5
g52
sg7
S'opportunities for'
p927
sg9
F1.0
ssS'<subj> recorded'
p928
(dp929
g3
I1
sg4
I1
sg5
g6
sg7
S'recorded'
p930
sg9
F1.0
ssS'<subj> based market'
p931
(dp932
g3
I0
sg4
I1
sg5
g6
sg7
S'based market'
p933
sg9
F0.0
ssS'doubled <dobj>'
p934
(dp935
g3
I0
sg4
I1
sg5
g12
sg7
S'doubled'
p936
sg9
F0.0
ssS'<subj> allows'
p937
(dp938
g3
I1
sg4
I1
sg5
g6
sg7
S'allows'
p939
sg9
F1.0
ssS'<subj> customized'
p940
(dp941
g3
I1
sg4
I1
sg5
g6
sg7
S'customized'
p942
sg9
F1.0
ssS'<subj> regarding merits'
p943
(dp944
g3
I1
sg4
I1
sg5
g6
sg7
S'regarding merits'
p945
sg9
F1.0
ssS'rely <dobj>'
p946
(dp947
g3
I1
sg4
I1
sg5
g12
sg7
S'rely'
p948
sg9
F1.0
ssS'<subj> rely'
p949
(dp950
g3
I1
sg4
I1
sg5
g6
sg7
S'rely'
p951
sg9
F1.0
ssS'<subj> attend video'
p952
(dp953
g91
I2
sg92
I2
sg93
g94
sg95
S'attend video'
p954
sg97
F1.0
ssS'<subj> streaming Smith'
p955
(dp956
g3
I1
sg4
I1
sg5
g6
sg7
S'streaming Smith'
p957
sg9
F1.0
ssV<subj> imagined worlds
p958
(dp959
g34
I9
sg35
I9
sg36
g37
sg38
Vimagined worlds
p960
sg40
F1.0
ssS'<subj> presented'
p961
(dp962
g3
I1
sg4
I1
sg5
g6
sg7
S'presented'
p963
sg9
F1.0
ssS'including collection of <np>'
p964
(dp965
g3
I1
sg4
I1
sg5
g52
sg7
S'including collection of'
p966
sg9
F1.0
ssS'involved <dobj>'
p967
(dp968
g3
I0
sg4
I1
sg5
g12
sg7
S'involved'
p969
sg9
F0.0
ssS'<subj> further'
p970
(dp971
g3
I1
sg4
I2
sg5
g6
sg7
S'further'
p972
sg9
F0.5
ssS'<subj> establish'
p973
(dp974
g3
I1
sg4
I1
sg5
g6
sg7
S'establish'
p975
sg9
F1.0
ssS'reach <dobj>'
p976
(dp977
g3
I1
sg4
I1
sg5
g12
sg7
S'reach'
p978
sg9
F1.0
ssS'<subj> watch stream'
p979
(dp980
g3
I1
sg4
I1
sg5
g6
sg7
S'watch stream'
p981
sg9
F1.0
ss.